target datalayout = "e-m:e-p270:32:32-p271:32:32-p272:64:64-i64:64-i128:128-f80:128-n8:16:32:64-S128"
target triple = "x86_64-pc-linux-gnu"

%struct.unim_index = type { ptr, i8, i8 }

@u2cgk_choseong = internal constant [19 x i8] c"\A1\A2\A4\A7\A8\A9\B1\B2\B3\B5\B6\B7\B8\B9\BA\BB\BC\BD\BE", align 16
@u2cgk_jungseong = internal constant [21 x i8] c"\BF\C0\C1\C2\C3\C4\C5\C6\C7\C8\C9\CA\CB\CC\CD\CE\CF\D0\D1\D2\D3", align 16
@u2cgk_jongseong = internal constant [28 x i8] c"\D4\A1\A2\A3\A4\A5\A6\A7\A9\AA\AB\AC\AD\AE\AF\B0\B1\B2\B4\B5\B6\B7\B8\BA\BB\BC\BD\BE", align 16

; Function Attrs: inlinehint nounwind uwtable
define internal i32 @PyUnicode_READ(i32 noundef %0, ptr noundef %1, i64 noundef %2) #2 {
  %4 = alloca i32, align 4
  %5 = alloca i32, align 4
  %6 = alloca ptr, align 8
  %7 = alloca i64, align 8
  store i32 %0, ptr %5, align 4, !tbaa !19
  store ptr %1, ptr %6, align 8, !tbaa !3
  store i64 %2, ptr %7, align 8, !tbaa !28
  %8 = load i32, ptr %5, align 4, !tbaa !19
  %9 = icmp eq i32 %8, 1
  br i1 %9, label %10, label %16

10:                                               ; preds = %3
  %11 = load ptr, ptr %6, align 8, !tbaa !3
  %12 = load i64, ptr %7, align 8, !tbaa !28
  %13 = getelementptr i8, ptr %11, i64 %12
  %14 = load i8, ptr %13, align 1, !tbaa !42
  %15 = zext i8 %14 to i32
  store i32 %15, ptr %4, align 4
  br label %30

16:                                               ; preds = %3
  %17 = load i32, ptr %5, align 4, !tbaa !19
  %18 = icmp eq i32 %17, 2
  br i1 %18, label %19, label %25

19:                                               ; preds = %16
  %20 = load ptr, ptr %6, align 8, !tbaa !3
  %21 = load i64, ptr %7, align 8, !tbaa !28
  %22 = getelementptr i16, ptr %20, i64 %21
  %23 = load i16, ptr %22, align 2, !tbaa !76
  %24 = zext i16 %23 to i32
  store i32 %24, ptr %4, align 4
  br label %30

25:                                               ; preds = %16
  %26 = load ptr, ptr %6, align 8, !tbaa !3
  %27 = load i64, ptr %7, align 8, !tbaa !28
  %28 = getelementptr i32, ptr %26, i64 %27
  %29 = load i32, ptr %28, align 4, !tbaa !19
  store i32 %29, ptr %4, align 4
  br label %30

30:                                               ; preds = %25, %19, %10
  %31 = load i32, ptr %4, align 4
  ret i32 %31
}

; Function Attrs: nounwind uwtable
define internal i64 @euc_kr_encode(ptr noundef %0, ptr noundef %1, i32 noundef %2, ptr noundef %3, ptr noundef %4, i64 noundef %5, ptr noundef %6, i64 noundef %7, i32 noundef %8) #0 {
  %10 = alloca i64, align 8
  %11 = alloca ptr, align 8
  %12 = alloca ptr, align 8
  %13 = alloca i32, align 4
  %14 = alloca ptr, align 8
  %15 = alloca ptr, align 8
  %16 = alloca i64, align 8
  %17 = alloca ptr, align 8
  %18 = alloca i64, align 8
  %19 = alloca i32, align 4
  %20 = alloca i32, align 4
  %21 = alloca i16, align 2
  %22 = alloca i32, align 4
  store ptr %0, ptr %11, align 8, !tbaa !3
  store ptr %1, ptr %12, align 8, !tbaa !21
  store i32 %2, ptr %13, align 4, !tbaa !19
  store ptr %3, ptr %14, align 8, !tbaa !3
  store ptr %4, ptr %15, align 8, !tbaa !66
  store i64 %5, ptr %16, align 8, !tbaa !28
  store ptr %6, ptr %17, align 8, !tbaa !68
  store i64 %7, ptr %18, align 8, !tbaa !28
  store i32 %8, ptr %19, align 4, !tbaa !19
  br label %23

23:                                               ; preds = %284, %282, %9
  %24 = load ptr, ptr %15, align 8, !tbaa !66
  %25 = load i64, ptr %24, align 8, !tbaa !28
  %26 = load i64, ptr %16, align 8, !tbaa !28
  %27 = icmp slt i64 %25, %26
  br i1 %27, label %28, label %285

28:                                               ; preds = %23
  call void @llvm.lifetime.start.p0(i64 4, ptr %20) #9
  %29 = load i32, ptr %13, align 4, !tbaa !19
  %30 = load ptr, ptr %14, align 8, !tbaa !3
  %31 = load ptr, ptr %15, align 8, !tbaa !66
  %32 = load i64, ptr %31, align 8, !tbaa !28
  %33 = call i32 @PyUnicode_READ(i32 noundef %29, ptr noundef %30, i64 noundef %32)
  store i32 %33, ptr %20, align 4, !tbaa !19
  call void @llvm.lifetime.start.p0(i64 2, ptr %21) #9
  %34 = load i32, ptr %20, align 4, !tbaa !19
  %35 = icmp ult i32 %34, 128
  br i1 %35, label %36, label %72

36:                                               ; preds = %28
  br label %37

37:                                               ; preds = %36
  br label %38

38:                                               ; preds = %37
  %39 = load i64, ptr %18, align 8, !tbaa !28
  %40 = icmp slt i64 %39, 1
  br i1 %40, label %41, label %42

41:                                               ; preds = %38
  store i64 -1, ptr %10, align 8
  store i32 1, ptr %22, align 4
  br label %282

42:                                               ; preds = %38
  br label %43

43:                                               ; preds = %42
  br label %44

44:                                               ; preds = %43
  br label %45

45:                                               ; preds = %44
  %46 = load i32, ptr %20, align 4, !tbaa !19
  %47 = trunc i32 %46 to i8
  %48 = load ptr, ptr %17, align 8, !tbaa !68
  %49 = load ptr, ptr %48, align 8, !tbaa !17
  %50 = getelementptr i8, ptr %49, i64 0
  store i8 %47, ptr %50, align 1, !tbaa !42
  br label %51

51:                                               ; preds = %45
  br label %52

52:                                               ; preds = %51
  br label %53

53:                                               ; preds = %52
  br label %54

54:                                               ; preds = %53
  br label %55

55:                                               ; preds = %54
  br label %56

56:                                               ; preds = %55
  %57 = load ptr, ptr %15, align 8, !tbaa !66
  %58 = load i64, ptr %57, align 8, !tbaa !28
  %59 = add i64 %58, 1
  store i64 %59, ptr %57, align 8, !tbaa !28
  br label %60

60:                                               ; preds = %56
  br label %61

61:                                               ; preds = %60
  br label %62

62:                                               ; preds = %61
  %63 = load ptr, ptr %17, align 8, !tbaa !68
  %64 = load ptr, ptr %63, align 8, !tbaa !17
  %65 = getelementptr i8, ptr %64, i64 1
  store ptr %65, ptr %63, align 8, !tbaa !17
  %66 = load i64, ptr %18, align 8, !tbaa !28
  %67 = sub i64 %66, 1
  store i64 %67, ptr %18, align 8, !tbaa !28
  br label %68

68:                                               ; preds = %62
  br label %69

69:                                               ; preds = %68
  br label %70

70:                                               ; preds = %69
  br label %71

71:                                               ; preds = %70
  store i32 2, ptr %22, align 4
  br label %282, !llvm.loop !70

72:                                               ; preds = %28
  %73 = load i32, ptr %20, align 4, !tbaa !19
  %74 = icmp ugt i32 %73, 65535
  br i1 %74, label %75, label %76

75:                                               ; preds = %72
  store i64 1, ptr %10, align 8
  store i32 1, ptr %22, align 4
  br label %282

76:                                               ; preds = %72
  br label %77

77:                                               ; preds = %76
  %78 = load i64, ptr %18, align 8, !tbaa !28
  %79 = icmp slt i64 %78, 2
  br i1 %79, label %80, label %81

80:                                               ; preds = %77
  store i64 -1, ptr %10, align 8
  store i32 1, ptr %22, align 4
  br label %282

81:                                               ; preds = %77
  br label %82

82:                                               ; preds = %81
  br label %83

83:                                               ; preds = %82
  %84 = load i32, ptr %20, align 4, !tbaa !19
  %85 = lshr i32 %84, 8
  %86 = zext i32 %85 to i64
  %87 = getelementptr [256 x %struct.unim_index], ptr @cp949_encmap, i64 0, i64 %86
  %88 = getelementptr inbounds nuw %struct.unim_index, ptr %87, i32 0, i32 0
  %89 = load ptr, ptr %88, align 16, !tbaa !71
  %90 = icmp ne ptr %89, null
  br i1 %90, label %91, label %136

91:                                               ; preds = %83
  %92 = load i32, ptr %20, align 4, !tbaa !19
  %93 = and i32 %92, 255
  %94 = load i32, ptr %20, align 4, !tbaa !19
  %95 = lshr i32 %94, 8
  %96 = zext i32 %95 to i64
  %97 = getelementptr [256 x %struct.unim_index], ptr @cp949_encmap, i64 0, i64 %96
  %98 = getelementptr inbounds nuw %struct.unim_index, ptr %97, i32 0, i32 1
  %99 = load i8, ptr %98, align 8, !tbaa !74
  %100 = zext i8 %99 to i32
  %101 = icmp uge i32 %93, %100
  br i1 %101, label %102, label %136

102:                                              ; preds = %91
  %103 = load i32, ptr %20, align 4, !tbaa !19
  %104 = and i32 %103, 255
  %105 = load i32, ptr %20, align 4, !tbaa !19
  %106 = lshr i32 %105, 8
  %107 = zext i32 %106 to i64
  %108 = getelementptr [256 x %struct.unim_index], ptr @cp949_encmap, i64 0, i64 %107
  %109 = getelementptr inbounds nuw %struct.unim_index, ptr %108, i32 0, i32 2
  %110 = load i8, ptr %109, align 1, !tbaa !75
  %111 = zext i8 %110 to i32
  %112 = icmp ule i32 %104, %111
  br i1 %112, label %113, label %136

113:                                              ; preds = %102
  %114 = load i32, ptr %20, align 4, !tbaa !19
  %115 = lshr i32 %114, 8
  %116 = zext i32 %115 to i64
  %117 = getelementptr [256 x %struct.unim_index], ptr @cp949_encmap, i64 0, i64 %116
  %118 = getelementptr inbounds nuw %struct.unim_index, ptr %117, i32 0, i32 0
  %119 = load ptr, ptr %118, align 16, !tbaa !71
  %120 = load i32, ptr %20, align 4, !tbaa !19
  %121 = and i32 %120, 255
  %122 = load i32, ptr %20, align 4, !tbaa !19
  %123 = lshr i32 %122, 8
  %124 = zext i32 %123 to i64
  %125 = getelementptr [256 x %struct.unim_index], ptr @cp949_encmap, i64 0, i64 %124
  %126 = getelementptr inbounds nuw %struct.unim_index, ptr %125, i32 0, i32 1
  %127 = load i8, ptr %126, align 8, !tbaa !74
  %128 = zext i8 %127 to i32
  %129 = sub i32 %121, %128
  %130 = zext i32 %129 to i64
  %131 = getelementptr i16, ptr %119, i64 %130
  %132 = load i16, ptr %131, align 2, !tbaa !76
  store i16 %132, ptr %21, align 2, !tbaa !76
  %133 = zext i16 %132 to i32
  %134 = icmp ne i32 %133, 65535
  br i1 %134, label %135, label %136

135:                                              ; preds = %113
  br label %137

136:                                              ; preds = %113, %102, %91, %83
  store i64 1, ptr %10, align 8
  store i32 1, ptr %22, align 4
  br label %282

137:                                              ; preds = %135
  %138 = load i16, ptr %21, align 2, !tbaa !76
  %139 = zext i16 %138 to i32
  %140 = and i32 %139, 32768
  %141 = icmp eq i32 %140, 0
  br i1 %141, label %142, label %182

142:                                              ; preds = %137
  br label %143

143:                                              ; preds = %142
  %144 = load i16, ptr %21, align 2, !tbaa !76
  %145 = zext i16 %144 to i32
  %146 = ashr i32 %145, 8
  %147 = or i32 %146, 128
  %148 = trunc i32 %147 to i8
  %149 = load ptr, ptr %17, align 8, !tbaa !68
  %150 = load ptr, ptr %149, align 8, !tbaa !17
  %151 = getelementptr i8, ptr %150, i64 0
  store i8 %148, ptr %151, align 1, !tbaa !42
  br label %152

152:                                              ; preds = %143
  br label %153

153:                                              ; preds = %152
  br label %154

154:                                              ; preds = %153
  %155 = load i16, ptr %21, align 2, !tbaa !76
  %156 = zext i16 %155 to i32
  %157 = and i32 %156, 255
  %158 = or i32 %157, 128
  %159 = trunc i32 %158 to i8
  %160 = load ptr, ptr %17, align 8, !tbaa !68
  %161 = load ptr, ptr %160, align 8, !tbaa !17
  %162 = getelementptr i8, ptr %161, i64 1
  store i8 %159, ptr %162, align 1, !tbaa !42
  br label %163

163:                                              ; preds = %154
  br label %164

164:                                              ; preds = %163
  br label %165

165:                                              ; preds = %164
  br label %166

166:                                              ; preds = %165
  %167 = load ptr, ptr %15, align 8, !tbaa !66
  %168 = load i64, ptr %167, align 8, !tbaa !28
  %169 = add i64 %168, 1
  store i64 %169, ptr %167, align 8, !tbaa !28
  br label %170

170:                                              ; preds = %166
  br label %171

171:                                              ; preds = %170
  br label %172

172:                                              ; preds = %171
  %173 = load ptr, ptr %17, align 8, !tbaa !68
  %174 = load ptr, ptr %173, align 8, !tbaa !17
  %175 = getelementptr i8, ptr %174, i64 2
  store ptr %175, ptr %173, align 8, !tbaa !17
  %176 = load i64, ptr %18, align 8, !tbaa !28
  %177 = sub i64 %176, 2
  store i64 %177, ptr %18, align 8, !tbaa !28
  br label %178

178:                                              ; preds = %172
  br label %179

179:                                              ; preds = %178
  br label %180

180:                                              ; preds = %179
  br label %181

181:                                              ; preds = %180
  br label %281

182:                                              ; preds = %137
  br label %183

183:                                              ; preds = %182
  %184 = load i64, ptr %18, align 8, !tbaa !28
  %185 = icmp slt i64 %184, 8
  br i1 %185, label %186, label %187

186:                                              ; preds = %183
  store i64 -1, ptr %10, align 8
  store i32 1, ptr %22, align 4
  br label %282

187:                                              ; preds = %183
  br label %188

188:                                              ; preds = %187
  br label %189

189:                                              ; preds = %188
  br label %190

190:                                              ; preds = %189
  %191 = load ptr, ptr %17, align 8, !tbaa !68
  %192 = load ptr, ptr %191, align 8, !tbaa !17
  %193 = getelementptr i8, ptr %192, i64 0
  store i8 -92, ptr %193, align 1, !tbaa !42
  br label %194

194:                                              ; preds = %190
  br label %195

195:                                              ; preds = %194
  br label %196

196:                                              ; preds = %195
  %197 = load ptr, ptr %17, align 8, !tbaa !68
  %198 = load ptr, ptr %197, align 8, !tbaa !17
  %199 = getelementptr i8, ptr %198, i64 1
  store i8 -44, ptr %199, align 1, !tbaa !42
  br label %200

200:                                              ; preds = %196
  br label %201

201:                                              ; preds = %200
  %202 = load i32, ptr %20, align 4, !tbaa !19
  %203 = sub i32 %202, 44032
  store i32 %203, ptr %20, align 4, !tbaa !19
  br label %204

204:                                              ; preds = %201
  %205 = load ptr, ptr %17, align 8, !tbaa !68
  %206 = load ptr, ptr %205, align 8, !tbaa !17
  %207 = getelementptr i8, ptr %206, i64 2
  store i8 -92, ptr %207, align 1, !tbaa !42
  br label %208

208:                                              ; preds = %204
  br label %209

209:                                              ; preds = %208
  br label %210

210:                                              ; preds = %209
  %211 = load i32, ptr %20, align 4, !tbaa !19
  %212 = udiv i32 %211, 588
  %213 = zext i32 %212 to i64
  %214 = getelementptr [19 x i8], ptr @u2cgk_choseong, i64 0, i64 %213
  %215 = load i8, ptr %214, align 1, !tbaa !42
  %216 = load ptr, ptr %17, align 8, !tbaa !68
  %217 = load ptr, ptr %216, align 8, !tbaa !17
  %218 = getelementptr i8, ptr %217, i64 3
  store i8 %215, ptr %218, align 1, !tbaa !42
  br label %219

219:                                              ; preds = %210
  br label %220

220:                                              ; preds = %219
  br label %221

221:                                              ; preds = %220
  %222 = load ptr, ptr %17, align 8, !tbaa !68
  %223 = load ptr, ptr %222, align 8, !tbaa !17
  %224 = getelementptr i8, ptr %223, i64 4
  store ptr %224, ptr %222, align 8, !tbaa !17
  %225 = load i64, ptr %18, align 8, !tbaa !28
  %226 = sub i64 %225, 4
  store i64 %226, ptr %18, align 8, !tbaa !28
  br label %227

227:                                              ; preds = %221
  br label %228

228:                                              ; preds = %227
  br label %229

229:                                              ; preds = %228
  %230 = load ptr, ptr %17, align 8, !tbaa !68
  %231 = load ptr, ptr %230, align 8, !tbaa !17
  %232 = getelementptr i8, ptr %231, i64 0
  store i8 -92, ptr %232, align 1, !tbaa !42
  br label %233

233:                                              ; preds = %229
  br label %234

234:                                              ; preds = %233
  br label %235

235:                                              ; preds = %234
  %236 = load i32, ptr %20, align 4, !tbaa !19
  %237 = udiv i32 %236, 28
  %238 = urem i32 %237, 21
  %239 = zext i32 %238 to i64
  %240 = getelementptr [21 x i8], ptr @u2cgk_jungseong, i64 0, i64 %239
  %241 = load i8, ptr %240, align 1, !tbaa !42
  %242 = load ptr, ptr %17, align 8, !tbaa !68
  %243 = load ptr, ptr %242, align 8, !tbaa !17
  %244 = getelementptr i8, ptr %243, i64 1
  store i8 %241, ptr %244, align 1, !tbaa !42
  br label %245

245:                                              ; preds = %235
  br label %246

246:                                              ; preds = %245
  br label %247

247:                                              ; preds = %246
  %248 = load ptr, ptr %17, align 8, !tbaa !68
  %249 = load ptr, ptr %248, align 8, !tbaa !17
  %250 = getelementptr i8, ptr %249, i64 2
  store i8 -92, ptr %250, align 1, !tbaa !42
  br label %251

251:                                              ; preds = %247
  br label %252

252:                                              ; preds = %251
  br label %253

253:                                              ; preds = %252
  %254 = load i32, ptr %20, align 4, !tbaa !19
  %255 = urem i32 %254, 28
  %256 = zext i32 %255 to i64
  %257 = getelementptr [28 x i8], ptr @u2cgk_jongseong, i64 0, i64 %256
  %258 = load i8, ptr %257, align 1, !tbaa !42
  %259 = load ptr, ptr %17, align 8, !tbaa !68
  %260 = load ptr, ptr %259, align 8, !tbaa !17
  %261 = getelementptr i8, ptr %260, i64 3
  store i8 %258, ptr %261, align 1, !tbaa !42
  br label %262

262:                                              ; preds = %253
  br label %263

263:                                              ; preds = %262
  br label %264

264:                                              ; preds = %263
  br label %265

265:                                              ; preds = %264
  %266 = load ptr, ptr %15, align 8, !tbaa !66
  %267 = load i64, ptr %266, align 8, !tbaa !28
  %268 = add i64 %267, 1
  store i64 %268, ptr %266, align 8, !tbaa !28
  br label %269

269:                                              ; preds = %265
  br label %270

270:                                              ; preds = %269
  br label %271

271:                                              ; preds = %270
  %272 = load ptr, ptr %17, align 8, !tbaa !68
  %273 = load ptr, ptr %272, align 8, !tbaa !17
  %274 = getelementptr i8, ptr %273, i64 4
  store ptr %274, ptr %272, align 8, !tbaa !17
  %275 = load i64, ptr %18, align 8, !tbaa !28
  %276 = sub i64 %275, 4
  store i64 %276, ptr %18, align 8, !tbaa !28
  br label %277

277:                                              ; preds = %271
  br label %278

278:                                              ; preds = %277
  br label %279

279:                                              ; preds = %278
  br label %280

280:                                              ; preds = %279
  br label %281

281:                                              ; preds = %280, %181
  store i32 0, ptr %22, align 4
  br label %282

282:                                              ; preds = %281, %186, %136, %80, %75, %71, %41
  call void @llvm.lifetime.end.p0(i64 2, ptr %21) #9
  call void @llvm.lifetime.end.p0(i64 4, ptr %20) #9
  %283 = load i32, ptr %22, align 4
  switch i32 %283, label %288 [
    i32 0, label %284
    i32 1, label %286
    i32 2, label %23
  ]

284:                                              ; preds = %282
  br label %23, !llvm.loop !70

285:                                              ; preds = %23
  store i64 0, ptr %10, align 8
  br label %286

286:                                              ; preds = %285, %282
  %287 = load i64, ptr %10, align 8
  ret i64 %287

288:                                              ; preds = %282
  unreachable
}