; Function Attrs: nofree norecurse nosync nounwind memory(readwrite, inaccessiblemem: none) uwtable
define internal range(i64 -1, 2) i64 @euc_kr_encode(ptr readnone captures(none) %0, ptr readnone captures(none) %1, i32 noundef %2, ptr noundef readonly captures(none) %3, ptr noundef captures(none) %4, i64 noundef %5, ptr noundef captures(none) %6, i64 noundef %7, i32 %8) #6 {
  %10 = load i64, ptr %4, align 8, !tbaa !48
  %11 = icmp slt i64 %10, %5
  br i1 %11, label %.lr.ph, label %.thread

.lr.ph:                                           ; preds = %9, %96
  %12 = phi i64 [ %98, %96 ], [ %10, %9 ]
  %.05068 = phi i64 [ %101, %96 ], [ %7, %9 ]
  switch i32 %2, label %21 [
    i32 1, label %13
    i32 2, label %17
  ]

13:                                               ; preds = %.lr.ph
  %14 = getelementptr i8, ptr %3, i64 %12
  %15 = load i8, ptr %14, align 1, !tbaa !34
  %16 = zext i8 %15 to i32
  br label %PyUnicode_READ.exit

17:                                               ; preds = %.lr.ph
  %18 = getelementptr i16, ptr %3, i64 %12
  %19 = load i16, ptr %18, align 2, !tbaa !49
  %20 = zext i16 %19 to i32
  br label %PyUnicode_READ.exit

21:                                               ; preds = %.lr.ph
  %22 = getelementptr i32, ptr %3, i64 %12
  %23 = load i32, ptr %22, align 4, !tbaa !50
  br label %PyUnicode_READ.exit

PyUnicode_READ.exit:                              ; preds = %13, %17, %21
  %.0.i = phi i32 [ %16, %13 ], [ %20, %17 ], [ %23, %21 ]
  %24 = icmp ult i32 %.0.i, 128
  br i1 %24, label %25, label %30

25:                                               ; preds = %PyUnicode_READ.exit
  %26 = icmp slt i64 %.05068, 1
  br i1 %26, label %.thread, label %27

27:                                               ; preds = %25
  %28 = trunc nuw nsw i32 %.0.i to i8
  %29 = load ptr, ptr %6, align 8, !tbaa !37
  store i8 %28, ptr %29, align 1, !tbaa !34
  br label %96, !llvm.loop !51

30:                                               ; preds = %PyUnicode_READ.exit
  %31 = icmp ugt i32 %.0.i, 65535
  br i1 %31, label %.thread, label %32

32:                                               ; preds = %30
  %33 = icmp slt i64 %.05068, 2
  br i1 %33, label %.thread, label %34

34:                                               ; preds = %32
  %35 = lshr i32 %.0.i, 8
  %36 = zext nneg i32 %35 to i64
  %37 = getelementptr [256 x %struct.unim_index], ptr @cp949_encmap, i64 0, i64 %36
  %38 = load ptr, ptr %37, align 16, !tbaa !52
  %.not = icmp eq ptr %38, null
  br i1 %.not, label %.thread, label %39

39:                                               ; preds = %34
  %40 = and i32 %.0.i, 255
  %41 = getelementptr inbounds nuw i8, ptr %37, i64 8
  %42 = load i8, ptr %41, align 8, !tbaa !55
  %43 = zext i8 %42 to i32
  %.not60 = icmp samesign ult i32 %40, %43
  br i1 %.not60, label %.thread, label %44

44:                                               ; preds = %39
  %45 = getelementptr inbounds nuw i8, ptr %37, i64 9
  %46 = load i8, ptr %45, align 1, !tbaa !56
  %47 = zext i8 %46 to i32
  %.not61 = icmp samesign ugt i32 %40, %47
  br i1 %.not61, label %.thread, label %48

48:                                               ; preds = %44
  %49 = sub nsw i32 %40, %43
  %50 = zext i32 %49 to i64
  %51 = getelementptr i16, ptr %38, i64 %50
  %52 = load i16, ptr %51, align 2, !tbaa !49
  %.not62 = icmp eq i16 %52, -1
  br i1 %.not62, label %.thread, label %53

53:                                               ; preds = %48
  %54 = icmp sgt i16 %52, -1
  br i1 %54, label %55, label %64

55:                                               ; preds = %53
  %56 = lshr i16 %52, 8
  %57 = trunc nuw i16 %56 to i8
  %58 = or disjoint i8 %57, -128
  %59 = load ptr, ptr %6, align 8, !tbaa !37
  store i8 %58, ptr %59, align 1, !tbaa !34
  %60 = trunc i16 %52 to i8
  %61 = or i8 %60, -128
  %62 = load ptr, ptr %6, align 8, !tbaa !37
  %63 = getelementptr i8, ptr %62, i64 1
  store i8 %61, ptr %63, align 1, !tbaa !34
  br label %96

64:                                               ; preds = %53
  %65 = icmp samesign ult i64 %.05068, 8
  br i1 %65, label %.thread, label %66

66:                                               ; preds = %64
  %67 = load ptr, ptr %6, align 8, !tbaa !37
  store i8 -92, ptr %67, align 1, !tbaa !34
  %68 = load ptr, ptr %6, align 8, !tbaa !37
  %69 = getelementptr i8, ptr %68, i64 1
  store i8 -44, ptr %69, align 1, !tbaa !34
  %70 = add nsw i32 %.0.i, -44032
  %71 = load ptr, ptr %6, align 8, !tbaa !37
  %72 = getelementptr i8, ptr %71, i64 2
  store i8 -92, ptr %72, align 1, !tbaa !34
  %73 = udiv i32 %70, 588
  %74 = zext nneg i32 %73 to i64
  %75 = getelementptr [19 x i8], ptr @u2cgk_choseong, i64 0, i64 %74
  %76 = load i8, ptr %75, align 1, !tbaa !34
  %77 = load ptr, ptr %6, align 8, !tbaa !37
  %78 = getelementptr i8, ptr %77, i64 3
  store i8 %76, ptr %78, align 1, !tbaa !34
  %79 = load ptr, ptr %6, align 8, !tbaa !37
  %80 = getelementptr i8, ptr %79, i64 4
  store ptr %80, ptr %6, align 8, !tbaa !37
  store i8 -92, ptr %80, align 1, !tbaa !34
  %81 = udiv i32 %70, 28
  %82 = urem i32 %81, 21
  %83 = zext nneg i32 %82 to i64
  %84 = getelementptr [21 x i8], ptr @u2cgk_jungseong, i64 0, i64 %83
  %85 = load i8, ptr %84, align 1, !tbaa !34
  %86 = load ptr, ptr %6, align 8, !tbaa !37
  %87 = getelementptr i8, ptr %86, i64 1
  store i8 %85, ptr %87, align 1, !tbaa !34
  %88 = load ptr, ptr %6, align 8, !tbaa !37
  %89 = getelementptr i8, ptr %88, i64 2
  store i8 -92, ptr %89, align 1, !tbaa !34
  %90 = urem i32 %70, 28
  %91 = zext nneg i32 %90 to i64
  %92 = getelementptr [28 x i8], ptr @u2cgk_jongseong, i64 0, i64 %91
  %93 = load i8, ptr %92, align 1, !tbaa !34
  %94 = load ptr, ptr %6, align 8, !tbaa !37
  %95 = getelementptr i8, ptr %94, i64 3
  store i8 %93, ptr %95, align 1, !tbaa !34
  br label %96

96:                                               ; preds = %55, %66, %27
  %.sink87 = phi i64 [ 2, %55 ], [ 4, %66 ], [ 1, %27 ]
  %.sink = phi i64 [ -2, %55 ], [ -8, %66 ], [ -1, %27 ]
  %97 = load i64, ptr %4, align 8, !tbaa !48
  %98 = add i64 %97, 1
  store i64 %98, ptr %4, align 8, !tbaa !48
  %99 = load ptr, ptr %6, align 8, !tbaa !37
  %100 = getelementptr i8, ptr %99, i64 %.sink87
  store ptr %100, ptr %6, align 8, !tbaa !37
  %101 = add nsw i64 %.05068, %.sink
  %102 = icmp slt i64 %98, %5
  br i1 %102, label %.lr.ph, label %.thread

.thread:                                          ; preds = %96, %25, %30, %32, %48, %44, %39, %34, %64, %9
  %.2 = phi i64 [ 0, %9 ], [ -1, %64 ], [ 1, %34 ], [ 1, %39 ], [ 1, %44 ], [ 1, %48 ], [ -1, %32 ], [ 1, %30 ], [ -1, %25 ], [ 0, %96 ]
  ret i64 %.2
}